target datalayout = "e-m:e-p270:32:32-p271:32:32-p272:64:64-i64:64-i128:128-f80:128-n8:16:32:64-S128"
target triple = "x86_64-pc-linux-gnu"

%struct.nstime_t = type { i64, i32 }
%struct.tds_conv_info_t = type { ptr, i32, i32, i32, i32, i32, i32, i32, i32, i8 }

@hf_tds_type_varbyte_data_absdatetime = internal global i32 0, align 4

; Function Attrs: nounwind null_pointer_is_valid sspstrong uwtable
define internal i32 @tds_get_int2_encoding(ptr noundef %0) #5 {
  %2 = alloca ptr, align 8
  store ptr %0, ptr %2, align 8
  %3 = load ptr, ptr %2, align 8
  %4 = getelementptr inbounds nuw %struct.tds_conv_info_t, ptr %3, i32 0, i32 4
  %5 = load i32, ptr %4, align 4
  %6 = icmp eq i32 %5, 2
  %7 = select i1 %6, i32 0, i32 -2147483648
  ret i32 %7
}

; Function Attrs: null_pointer_is_valid sspstrong uwtable
define internal void @handle_tds_sql_smalldatetime(ptr noundef %0, i32 noundef %1, ptr noundef %2, ptr noundef %3) #0 {
  %5 = alloca ptr, align 8
  %6 = alloca i32, align 4
  %7 = alloca ptr, align 8
  %8 = alloca ptr, align 8
  %9 = alloca %struct.nstime_t, align 8
  %10 = alloca i64, align 8
  %11 = alloca i64, align 8
  store ptr %0, ptr %5, align 8
  store i32 %1, ptr %6, align 4
  store ptr %2, ptr %7, align 8
  store ptr %3, ptr %8, align 8
  call void @llvm.lifetime.start.p0(i64 16, ptr %9) #11
  call void @llvm.memset.p0.i64(ptr align 8 %9, i8 0, i64 16, i1 false)
  call void @llvm.lifetime.start.p0(i64 8, ptr %10) #11
  call void @llvm.lifetime.start.p0(i64 8, ptr %11) #11
  %12 = load ptr, ptr %8, align 8
  %13 = getelementptr inbounds nuw %struct.tds_conv_info_t, ptr %12, i32 0, i32 8
  %14 = load i32, ptr %13, align 4
  %15 = icmp eq i32 %14, 17
  br i1 %15, label %16, label %30

16:                                               ; preds = %4
  %17 = load ptr, ptr %5, align 8
  %18 = load i32, ptr %6, align 4
  %19 = load ptr, ptr %8, align 8
  %20 = call i32 @tds_get_int2_encoding(ptr noundef %19)
  %21 = call zeroext i16 @tvb_get_uint16(ptr noundef %17, i32 noundef %18, i32 noundef %20)
  %22 = zext i16 %21 to i64
  store i64 %22, ptr %10, align 8
  %23 = load ptr, ptr %5, align 8
  %24 = load i32, ptr %6, align 4
  %25 = add i32 %24, 2
  %26 = load ptr, ptr %8, align 8
  %27 = call i32 @tds_get_int2_encoding(ptr noundef %26)
  %28 = call zeroext i16 @tvb_get_uint16(ptr noundef %23, i32 noundef %25, i32 noundef %27)
  %29 = zext i16 %28 to i64
  store i64 %29, ptr %11, align 8
  br label %51

30:                                               ; preds = %4
  %31 = load ptr, ptr %8, align 8
  %32 = getelementptr inbounds nuw %struct.tds_conv_info_t, ptr %31, i32 0, i32 8
  %33 = load i32, ptr %32, align 4
  %34 = icmp eq i32 %33, 16
  br i1 %34, label %35, label %49

35:                                               ; preds = %30
  %36 = load ptr, ptr %5, align 8
  %37 = load i32, ptr %6, align 4
  %38 = load ptr, ptr %8, align 8
  %39 = call i32 @tds_get_int2_encoding(ptr noundef %38)
  %40 = call zeroext i16 @tvb_get_uint16(ptr noundef %36, i32 noundef %37, i32 noundef %39)
  %41 = zext i16 %40 to i64
  store i64 %41, ptr %11, align 8
  %42 = load ptr, ptr %5, align 8
  %43 = load i32, ptr %6, align 4
  %44 = add i32 %43, 2
  %45 = load ptr, ptr %8, align 8
  %46 = call i32 @tds_get_int2_encoding(ptr noundef %45)
  %47 = call zeroext i16 @tvb_get_uint16(ptr noundef %42, i32 noundef %44, i32 noundef %46)
  %48 = zext i16 %47 to i64
  store i64 %48, ptr %10, align 8
  br label %50

49:                                               ; preds = %30
  store i64 0, ptr %11, align 8
  store i64 0, ptr %10, align 8
  br label %50

50:                                               ; preds = %49, %35
  br label %51

51:                                               ; preds = %50, %16
  %52 = load i64, ptr %10, align 8
  %53 = mul i64 %52, 86400
  %54 = load i64, ptr %11, align 8
  %55 = mul i64 %54, 60
  %56 = add i64 %53, %55
  %57 = sub i64 %56, 2208988800
  %58 = getelementptr inbounds nuw %struct.nstime_t, ptr %9, i32 0, i32 0
  store i64 %57, ptr %58, align 8
  %59 = getelementptr inbounds nuw %struct.nstime_t, ptr %9, i32 0, i32 1
  store i32 0, ptr %59, align 8
  %60 = load ptr, ptr %7, align 8
  %61 = load i32, ptr @hf_tds_type_varbyte_data_absdatetime, align 4
  %62 = load ptr, ptr %5, align 8
  %63 = load i32, ptr %6, align 4
  %64 = call ptr @proto_tree_add_time(ptr noundef %60, i32 noundef %61, ptr noundef %62, i32 noundef %63, i32 noundef 8, ptr noundef %9)
  call void @llvm.lifetime.end.p0(i64 8, ptr %11) #11
  call void @llvm.lifetime.end.p0(i64 8, ptr %10) #11
  call void @llvm.lifetime.end.p0(i64 16, ptr %9) #11
  ret void
}