; Function Attrs: null_pointer_is_valid sspstrong uwtable
define internal fastcc void @handle_tds_sql_smalldatetime(ptr noundef nonnull %0, i32 noundef %1, ptr noundef %2, ptr noundef readonly captures(none) %3) unnamed_addr #0 {
  %5 = alloca %struct.nstime_t, align 8
  call void @llvm.lifetime.start.p0(i64 16, ptr nonnull %5) #13
  %6 = getelementptr inbounds nuw i8, ptr %5, i64 8
  store i64 0, ptr %6, align 8
  %7 = getelementptr inbounds nuw i8, ptr %3, i64 36
  %8 = load i32, ptr %7, align 4
  switch i32 %8, label %27 [
    i32 17, label %9
    i32 16, label %18
  ]

9:                                                ; preds = %4
  %10 = getelementptr i8, ptr %3, i64 20
  %.val22 = load i32, ptr %10, align 4
  %11 = icmp eq i32 %.val22, 2
  %12 = select i1 %11, i32 0, i32 -2147483648
  %13 = tail call zeroext i16 @tvb_get_uint16(ptr noundef nonnull %0, i32 noundef %1, i32 noundef %12)
  %14 = add i32 %1, 2
  %.val21 = load i32, ptr %10, align 4
  %15 = icmp eq i32 %.val21, 2
  %16 = select i1 %15, i32 0, i32 -2147483648
  %17 = tail call zeroext i16 @tvb_get_uint16(ptr noundef nonnull %0, i32 noundef %14, i32 noundef %16)
  br label %27

18:                                               ; preds = %4
  %19 = getelementptr i8, ptr %3, i64 20
  %.val20 = load i32, ptr %19, align 4
  %20 = icmp eq i32 %.val20, 2
  %21 = select i1 %20, i32 0, i32 -2147483648
  %22 = tail call zeroext i16 @tvb_get_uint16(ptr noundef nonnull %0, i32 noundef %1, i32 noundef %21)
  %23 = add i32 %1, 2
  %.val = load i32, ptr %19, align 4
  %24 = icmp eq i32 %.val, 2
  %25 = select i1 %24, i32 0, i32 -2147483648
  %26 = tail call zeroext i16 @tvb_get_uint16(ptr noundef nonnull %0, i32 noundef %23, i32 noundef %25)
  br label %27

27:                                               ; preds = %4, %18, %9
  %.018.shrunk = phi i16 [ %13, %9 ], [ %26, %18 ], [ 0, %4 ]
  %.0.shrunk = phi i16 [ %17, %9 ], [ %22, %18 ], [ 0, %4 ]
  %.0 = zext i16 %.0.shrunk to i64
  %.018 = zext i16 %.018.shrunk to i64
  %28 = mul nuw nsw i64 %.018, 86400
  %29 = mul nuw nsw i64 %.0, 60
  %30 = add nsw i64 %28, -2208988800
  %31 = add nsw i64 %30, %29
  store i64 %31, ptr %5, align 8
  %32 = getelementptr inbounds nuw i8, ptr %5, i64 8
  store i32 0, ptr %32, align 8
  %33 = load i32, ptr @hf_tds_type_varbyte_data_absdatetime, align 4
  %34 = call ptr @proto_tree_add_time(ptr noundef %2, i32 noundef %33, ptr noundef nonnull %0, i32 noundef %1, i32 noundef 8, ptr noundef nonnull %5)
  call void @llvm.lifetime.end.p0(i64 16, ptr nonnull %5) #13
  ret void
}